Certificate:
    Data:
        Version: 3 (0x2)
        Serial Number:
            5f:bd:42:c3:59:a3:e8:57:45:fe:66:58:15:ea:a8:b8
    Signature Algorithm: sha256WithRSAEncryption
        Issuer: CN=Easy-RSA CA
        Validity
            Not Before: Feb  5 17:01:27 2018 GMT
            Not After : Feb  3 17:01:27 2028 GMT
        Subject: CN=vpn.streaming-platform.com
        Subject Public Key Info:
            Public Key Algorithm: rsaEncryption
                Public-Key: (2048 bit)
                Modulus:
                    00:b9:77:84:a9:57:84:80:57:2d:78:a8:74:02:fa:
                    0b:d3:ff:14:ab:21:75:b1:47:e0:a4:f2:44:a0:e1:
                    86:ab:f3:c2:d6:84:47:19:80:b6:19:26:55:4b:43:
                    1d:6e:94:b9:52:ad:d5:d3:fa:55:88:ac:c3:18:63:
                    80:49:59:0f:9f:07:9e:6f:a8:91:e2:86:c8:6b:c9:
                    83:e1:54:5a:80:7e:bd:1b:27:4e:4a:28:f0:f2:75:
                    07:b6:07:0b:06:29:9b:75:6b:4f:6e:59:00:3e:67:
                    26:d7:96:08:41:ee:d9:c2:aa:50:f8:18:b8:88:29:
                    6e:07:57:de:29:3d:28:7a:2d:cf:45:e2:4c:77:79:
                    77:67:e6:19:21:e5:b0:1f:1a:a5:f9:5b:c0:e1:31:
                    76:a3:26:28:5c:34:ef:9a:e7:90:ba:b2:a4:cd:35:
                    b1:b5:e4:75:10:c7:08:e8:be:dc:1d:95:52:bc:17:
                    f5:6a:a9:36:9e:cc:ae:bb:71:62:69:ac:be:07:d4:
                    19:cb:93:a0:0a:4b:64:82:02:b3:d7:a2:ef:b4:93:
                    15:2e:9c:26:76:21:0f:6e:7d:97:7a:7d:2f:a9:d1:
                    29:86:8f:b7:c3:9a:e0:61:72:f4:40:c1:9a:e2:45:
                    6d:5d:e6:07:88:6c:2f:50:82:d1:a4:c6:76:bf:25:
                    11:c1
                Exponent: 65537 (0x10001)
        X509v3 extensions:
            X509v3 Basic Constraints: 
                CA:FALSE
            X509v3 Subject Key Identifier: 
                83:34:C9:6C:7C:30:EF:D4:03:4E:E8:B6:1D:44:53:7E:02:83:E0:5B
            X509v3 Authority Key Identifier: 
                keyid:1E:58:39:6B:06:74:F0:1E:AC:03:F4:6A:B3:4A:7A:72:04:26:89:B6
                DirName:/CN=Easy-RSA CA
                serial:86:C0:73:5E:97:EA:04:5C

            X509v3 Extended Key Usage: 
                TLS Web Server Authentication
            X509v3 Key Usage: 
                Digital Signature, Key Encipherment
            X509v3 Subject Alternative Name: 
                DNS:vpn.streaming-platform.com
    Signature Algorithm: sha256WithRSAEncryption
         e6:28:fb:04:b6:bb:88:5f:da:45:41:be:1b:ad:cd:a4:0b:f8:
         66:50:80:6a:50:d0:68:c3:2c:49:69:ec:23:60:f4:23:92:f6:
         af:7c:34:bb:4a:06:66:9d:fb:1e:8a:99:50:ed:ba:11:bc:b8:
         65:5d:9e:9c:8a:ce:3e:f0:e8:08:74:a7:23:b9:0c:76:1b:46:
         13:71:b8:a1:a4:a3:9d:de:0b:5c:b4:79:db:51:2e:11:46:12:
         7a:10:8b:29:65:e6:71:24:94:ef:35:7f:f0:55:87:71:66:e9:
         f0:07:b3:d1:2e:49:a8:eb:c5:79:04:b1:c4:07:e5:bf:6f:9b:
         1d:6f:32:a7:99:bc:9b:d5:b9:cf:ed:33:9c:57:79:ed:32:fe:
         d0:a1:e9:c4:f3:12:6f:2e:d3:28:f6:e4:72:3e:ff:11:14:25:
         02:75:87:8d:b5:c1:0e:8c:08:c8:9e:5f:27:c2:28:a3:b7:87:
         77:35:c1:4f:b9:2c:71:e7:62:a3:a1:a5:4a:10:82:af:66:be:
         a5:62:53:3a:de:0c:3e:11:35:5d:5b:a9:d7:f9:ad:70:45:39:
         c9:0f:22:4f:12:74:07:aa:bb:4d:c0:3a:91:d9:ad:7a:39:1d:
         3d:9d:88:05:c7:80:0c:dc:3a:92:f6:79:e9:46:20:b8:22:e6:
         29:80:35:b2
-----BEGIN CERTIFICATE-----
MIIDhDCCAmygAwIBAgIQX71Cw1mj6FdF/mZYFeqouDANBgkqhkiG9w0BAQsFADAW
MRQwEgYDVQQDDAtFYXN5LVJTQSBDQTAeFw0xODAyMDUxNzAxMjdaFw0yODAyMDMx
NzAxMjdaMCUxIzAhBgNVBAMMGnZwbi5zdHJlYW1pbmctcGxhdGZvcm0uY29tMIIB
IjANBgkqhkiG9w0BAQEFAAOCAQ8AMIIBCgKCAQEAuXeEqVeEgFcteKh0AvoL0/8U
qyF1sUfgpPJEoOGGq/PC1oRHGYC2GSZVS0MdbpS5Uq3V0/pViKzDGGOASVkPnwee
b6iR4obIa8mD4VRagH69GydOSijw8nUHtgcLBimbdWtPblkAPmcm15YIQe7ZwqpQ
+Bi4iCluB1feKT0oei3PReJMd3l3Z+YZIeWwHxql+VvA4TF2oyYoXDTvmueQurKk
zTWxteR1EMcI6L7cHZVSvBf1aqk2nsyuu3Fiaay+B9QZy5OgCktkggKz16LvtJMV
LpwmdiEPbn2Xen0vqdEpho+3w5rgYXL0QMGa4kVtXeYHiGwvUILRpMZ2vyURwQID
AQABo4G+MIG7MAkGA1UdEwQCMAAwHQYDVR0OBBYEFIM0yWx8MO/UA07oth1EU34C
g+BbMEYGA1UdIwQ/MD2AFB5YOWsGdPAerAP0arNKenIEJom2oRqkGDAWMRQwEgYD
VQQDDAtFYXN5LVJTQSBDQYIJAIbAc16X6gRcMBMGA1UdJQQMMAoGCCsGAQUFBwMB
MAsGA1UdDwQEAwIFoDAlBgNVHREEHjAcghp2cG4uc3RyZWFtaW5nLXBsYXRmb3Jt
LmNvbTANBgkqhkiG9w0BAQsFAAOCAQEA5ij7BLa7iF/aRUG+G63NpAv4ZlCAalDQ
aMMsSWnsI2D0I5L2r3w0u0oGZp37HoqZUO26Eby4ZV2enIrOPvDoCHSnI7kMdhtG
E3G4oaSjnd4LXLR521EuEUYSehCLKWXmcSSU7zV/8FWHcWbp8Aez0S5JqOvFeQSx
xAflv2+bHW8yp5m8m9W5z+0znFd57TL+0KHpxPMSby7TKPbkcj7/ERQlAnWHjbXB
DowIyJ5fJ8Ioo7eHdzXBT7kscedio6GlShCCr2a+pWJTOt4MPhE1XVup1/mtcEU5
yQ8iTxJ0B6q7TcA6kdmtejkdPZ2IBceADNw6kvZ56UYguCLmKYA1sg==
-----END CERTIFICATE-----
